target datalayout = "e-m:e-p270:32:32-p271:32:32-p272:64:64-i64:64-i128:128-f80:128-n8:16:32:64-S128"
target triple = "x86_64-pc-linux-gnu"

%struct.config_set = type { %struct.hashmap, i32, %struct.configset_list }
%struct.hashmap = type { ptr, ptr, ptr, i32, i32, i32, i32, i8 }
%struct.configset_list = type { ptr, i32, i32 }
%struct.key_value_info = type { ptr, i32, i32, i32, ptr }
%struct.config_context = type { ptr }
%struct.repository = type { ptr, ptr, ptr, ptr, ptr, %struct.strmap, %struct.strmap, %struct.repo_path_cache, ptr, ptr, ptr, ptr, %struct.repo_settings, ptr, ptr, ptr, ptr, ptr, ptr, i32, i32, i32, ptr, ptr, i32, i32, i8 }
%struct.strmap = type { %struct.hashmap, ptr, i8 }
%struct.repo_path_cache = type { ptr, ptr, ptr, ptr, ptr, ptr, ptr }
%struct.repo_settings = type { i32, i32, i32, i32, i32, i32, i32, i32, i32, i32, i32, i32, ptr, i32, i32, i32, i32, i32, i32, i32, i64, i64, i64 }
%struct.config_set_element = type { %struct.hashmap_entry, ptr, %struct.string_list }
%struct.hashmap_entry = type { ptr, i32 }
%struct.string_list = type { ptr, i64, i64, i8, ptr }
%struct.string_list_item = type { ptr, ptr }
%struct.configset_list_item = type { ptr, i32 }

; Function Attrs: nounwind uwtable
define internal void @configset_iter(ptr noundef %0, ptr noundef %1, ptr noundef %2) #0 {
  %4 = alloca ptr, align 8
  %5 = alloca ptr, align 8
  %6 = alloca ptr, align 8
  %7 = alloca i32, align 4
  %8 = alloca i32, align 4
  %9 = alloca ptr, align 8
  %10 = alloca ptr, align 8
  %11 = alloca ptr, align 8
  %12 = alloca %struct.config_context, align 8
  store ptr %0, ptr %4, align 8, !tbaa !107
  store ptr %1, ptr %5, align 8, !tbaa !30
  store ptr %2, ptr %6, align 8, !tbaa !30
  call void @llvm.lifetime.start.p0(i64 4, ptr %7) #13
  call void @llvm.lifetime.start.p0(i64 4, ptr %8) #13
  call void @llvm.lifetime.start.p0(i64 8, ptr %9) #13
  call void @llvm.lifetime.start.p0(i64 8, ptr %10) #13
  call void @llvm.lifetime.start.p0(i64 8, ptr %11) #13
  %13 = load ptr, ptr %4, align 8, !tbaa !107
  %14 = getelementptr inbounds nuw %struct.config_set, ptr %13, i32 0, i32 2
  store ptr %14, ptr %11, align 8, !tbaa !143
  call void @llvm.lifetime.start.p0(i64 8, ptr %12) #13
  call void @llvm.memset.p0.i64(ptr align 8 %12, i8 0, i64 8, i1 false)
  store i32 0, ptr %7, align 4, !tbaa !13
  br label %15

15:                                               ; preds = %77, %3
  %16 = load i32, ptr %7, align 4, !tbaa !13
  %17 = load ptr, ptr %11, align 8, !tbaa !143
  %18 = getelementptr inbounds nuw %struct.configset_list, ptr %17, i32 0, i32 1
  %19 = load i32, ptr %18, align 8, !tbaa !145
  %20 = icmp ult i32 %16, %19
  br i1 %20, label %21, label %80

21:                                               ; preds = %15
  %22 = load ptr, ptr %11, align 8, !tbaa !143
  %23 = getelementptr inbounds nuw %struct.configset_list, ptr %22, i32 0, i32 0
  %24 = load ptr, ptr %23, align 8, !tbaa !146
  %25 = load i32, ptr %7, align 4, !tbaa !13
  %26 = sext i32 %25 to i64
  %27 = getelementptr inbounds %struct.configset_list_item, ptr %24, i64 %26
  %28 = getelementptr inbounds nuw %struct.configset_list_item, ptr %27, i32 0, i32 0
  %29 = load ptr, ptr %28, align 8, !tbaa !147
  store ptr %29, ptr %10, align 8, !tbaa !117
  %30 = load ptr, ptr %11, align 8, !tbaa !143
  %31 = getelementptr inbounds nuw %struct.configset_list, ptr %30, i32 0, i32 0
  %32 = load ptr, ptr %31, align 8, !tbaa !146
  %33 = load i32, ptr %7, align 4, !tbaa !13
  %34 = sext i32 %33 to i64
  %35 = getelementptr inbounds %struct.configset_list_item, ptr %32, i64 %34
  %36 = getelementptr inbounds nuw %struct.configset_list_item, ptr %35, i32 0, i32 1
  %37 = load i32, ptr %36, align 8, !tbaa !149
  store i32 %37, ptr %8, align 4, !tbaa !13
  %38 = load ptr, ptr %10, align 8, !tbaa !117
  %39 = getelementptr inbounds nuw %struct.config_set_element, ptr %38, i32 0, i32 2
  store ptr %39, ptr %9, align 8, !tbaa !129
  %40 = load ptr, ptr %9, align 8, !tbaa !129
  %41 = getelementptr inbounds nuw %struct.string_list, ptr %40, i32 0, i32 0
  %42 = load ptr, ptr %41, align 8, !tbaa !130
  %43 = load i32, ptr %8, align 4, !tbaa !13
  %44 = sext i32 %43 to i64
  %45 = getelementptr inbounds %struct.string_list_item, ptr %42, i64 %44
  %46 = getelementptr inbounds nuw %struct.string_list_item, ptr %45, i32 0, i32 1
  %47 = load ptr, ptr %46, align 8, !tbaa !135
  %48 = getelementptr inbounds nuw %struct.config_context, ptr %12, i32 0, i32 0
  store ptr %47, ptr %48, align 8, !tbaa !37
  %49 = load ptr, ptr %5, align 8, !tbaa !30
  %50 = load ptr, ptr %10, align 8, !tbaa !117
  %51 = getelementptr inbounds nuw %struct.config_set_element, ptr %50, i32 0, i32 1
  %52 = load ptr, ptr %51, align 8, !tbaa !119
  %53 = load ptr, ptr %9, align 8, !tbaa !129
  %54 = getelementptr inbounds nuw %struct.string_list, ptr %53, i32 0, i32 0
  %55 = load ptr, ptr %54, align 8, !tbaa !130
  %56 = load i32, ptr %8, align 4, !tbaa !13
  %57 = sext i32 %56 to i64
  %58 = getelementptr inbounds %struct.string_list_item, ptr %55, i64 %57
  %59 = getelementptr inbounds nuw %struct.string_list_item, ptr %58, i32 0, i32 0
  %60 = load ptr, ptr %59, align 8, !tbaa !133
  %61 = load ptr, ptr %6, align 8, !tbaa !30
  %62 = call i32 %49(ptr noundef %52, ptr noundef %60, ptr noundef %12, ptr noundef %61)
  %63 = icmp slt i32 %62, 0
  br i1 %63, label %64, label %76

64:                                               ; preds = %21
  %65 = load ptr, ptr %10, align 8, !tbaa !117
  %66 = getelementptr inbounds nuw %struct.config_set_element, ptr %65, i32 0, i32 1
  %67 = load ptr, ptr %66, align 8, !tbaa !119
  %68 = getelementptr inbounds nuw %struct.config_context, ptr %12, i32 0, i32 0
  %69 = load ptr, ptr %68, align 8, !tbaa !37
  %70 = getelementptr inbounds nuw %struct.key_value_info, ptr %69, i32 0, i32 0
  %71 = load ptr, ptr %70, align 8, !tbaa !24
  %72 = getelementptr inbounds nuw %struct.config_context, ptr %12, i32 0, i32 0
  %73 = load ptr, ptr %72, align 8, !tbaa !37
  %74 = getelementptr inbounds nuw %struct.key_value_info, ptr %73, i32 0, i32 1
  %75 = load i32, ptr %74, align 8, !tbaa !26
  call void @git_die_config_linenr(ptr noundef %67, ptr noundef %71, i32 noundef %75) #15
  unreachable

76:                                               ; preds = %21
  br label %77

77:                                               ; preds = %76
  %78 = load i32, ptr %7, align 4, !tbaa !13
  %79 = add nsw i32 %78, 1
  store i32 %79, ptr %7, align 4, !tbaa !13
  br label %15, !llvm.loop !150

80:                                               ; preds = %15
  call void @llvm.lifetime.end.p0(i64 8, ptr %12) #13
  call void @llvm.lifetime.end.p0(i64 8, ptr %11) #13
  call void @llvm.lifetime.end.p0(i64 8, ptr %10) #13
  call void @llvm.lifetime.end.p0(i64 8, ptr %9) #13
  call void @llvm.lifetime.end.p0(i64 4, ptr %8) #13
  call void @llvm.lifetime.end.p0(i64 4, ptr %7) #13
  ret void
}

; Function Attrs: nounwind uwtable
define dso_local void @repo_config(ptr noundef %0, ptr noundef %1, ptr noundef %2) #0 {
  %4 = alloca ptr, align 8
  %5 = alloca ptr, align 8
  %6 = alloca ptr, align 8
  store ptr %0, ptr %4, align 8, !tbaa !65
  store ptr %1, ptr %5, align 8, !tbaa !30
  store ptr %2, ptr %6, align 8, !tbaa !30
  %7 = load ptr, ptr %4, align 8, !tbaa !65
  call void @git_config_check_init(ptr noundef %7)
  %8 = load ptr, ptr %4, align 8, !tbaa !65
  %9 = getelementptr inbounds nuw %struct.repository, ptr %8, i32 0, i32 13
  %10 = load ptr, ptr %9, align 8, !tbaa !142
  %11 = load ptr, ptr %5, align 8, !tbaa !30
  %12 = load ptr, ptr %6, align 8, !tbaa !30
  call void @configset_iter(ptr noundef %10, ptr noundef %11, ptr noundef %12)
  ret void
}