; Function Attrs: nounwind uwtable
define dso_local void @repo_config(ptr noundef %0, ptr noundef readonly captures(none) %1, ptr noundef %2) local_unnamed_addr #0 {
  %4 = alloca %struct.config_context, align 8
  tail call fastcc void @git_config_check_init(ptr noundef %0)
  %5 = getelementptr inbounds nuw i8, ptr %0, i64 368
  %6 = load ptr, ptr %5, align 8, !tbaa !126
  %7 = getelementptr inbounds nuw i8, ptr %6, i64 56
  call void @llvm.lifetime.start.p0(i64 8, ptr nonnull %4) #30
  store i64 0, ptr %4, align 8
  %8 = getelementptr inbounds nuw i8, ptr %6, i64 64
  %9 = load i32, ptr %8, align 8, !tbaa !127
  %.not.i = icmp eq i32 %9, 0
  br i1 %.not.i, label %configset_iter.exit, label %.lr.ph.i

10:                                               ; preds = %.lr.ph.i
  %indvars.iv.next.i = add nuw nsw i64 %indvars.iv.i, 1
  %11 = load i32, ptr %8, align 8, !tbaa !127
  %12 = zext i32 %11 to i64
  %13 = icmp samesign ult i64 %indvars.iv.next.i, %12
  br i1 %13, label %.lr.ph.i, label %configset_iter.exit, !llvm.loop !128

.lr.ph.i:                                         ; preds = %3, %10
  %indvars.iv.i = phi i64 [ %indvars.iv.next.i, %10 ], [ 0, %3 ]
  %14 = load ptr, ptr %7, align 8, !tbaa !129
  %15 = getelementptr inbounds nuw %struct.configset_list_item, ptr %14, i64 %indvars.iv.i
  %16 = load ptr, ptr %15, align 8, !tbaa !118
  %17 = getelementptr inbounds nuw i8, ptr %15, i64 8
  %18 = load i32, ptr %17, align 8, !tbaa !122
  %19 = getelementptr inbounds nuw i8, ptr %16, i64 24
  %20 = load ptr, ptr %19, align 8, !tbaa !97
  %21 = sext i32 %18 to i64
  %22 = getelementptr inbounds %struct.string_list_item, ptr %20, i64 %21, i32 1
  %23 = load ptr, ptr %22, align 8, !tbaa !124
  store ptr %23, ptr %4, align 8, !tbaa !28
  %24 = getelementptr inbounds nuw i8, ptr %16, i64 16
  %25 = load ptr, ptr %24, align 8, !tbaa !108
  %26 = getelementptr inbounds %struct.string_list_item, ptr %20, i64 %21
  %27 = load ptr, ptr %26, align 8, !tbaa !101
  %28 = call i32 %1(ptr noundef %25, ptr noundef %27, ptr noundef nonnull %4, ptr noundef %2) #30
  %29 = icmp slt i32 %28, 0
  br i1 %29, label %30, label %10

30:                                               ; preds = %.lr.ph.i
  %31 = getelementptr inbounds nuw i8, ptr %16, i64 16
  %32 = load ptr, ptr %31, align 8, !tbaa !108
  %33 = load ptr, ptr %4, align 8, !tbaa !28
  %34 = load ptr, ptr %33, align 8, !tbaa !20
  %35 = getelementptr inbounds nuw i8, ptr %33, i64 8
  %36 = load i32, ptr %35, align 8, !tbaa !22
  call void @git_die_config_linenr(ptr noundef %32, ptr noundef %34, i32 noundef %36) #32
  unreachable

configset_iter.exit:                              ; preds = %10, %3
  call void @llvm.lifetime.end.p0(i64 8, ptr nonnull %4) #30
  ret void
}